#include <math.h>
#include <stdio.h>
#include <stdlib.h>
#include <string.h>

int main()
{
	char a[100],b[100],temp;
	int len1,len2,i,j;
	scanf("%s%s",a,b);
	len1=strlen(a);
	len2=strlen(b);
	for(i=0;i<len1;i++)
	for(j=0;j<i;j++)
	{
		if(a[i]>a[j])
		{
			temp=a[i];
			a[i]=a[j];
			a[j]=temp;
		}
	}
	for(i=0;i<len2;i++)
	for(j=0;j<i;j++)
	{
		if(b[i]>b[j])
		{
			temp=b[i];
			b[i]=b[j];
			b[j]=temp;
		}
	}
	if(strcmp(a,b)==0)
	printf("YES");
	else
	printf("NO");
	return 0;
}
	
			
