; ModuleID = '36/802.c'
source_filename = "36/802.c"
target datalayout = "e-m:e-p270:32:32-p271:32:32-p272:64:64-i64:64-f80:128-n8:16:32:64-S128"
target triple = "x86_64-pc-linux-gnu"

@.str = private unnamed_addr constant [5 x i8] c"%s%s\00", align 1
@.str.1 = private unnamed_addr constant [4 x i8] c"YES\00", align 1
@.str.2 = private unnamed_addr constant [3 x i8] c"NO\00", align 1

; Function Attrs: noinline nounwind uwtable
define dso_local i32 @main() #0 {
  %1 = alloca i32, align 4
  %2 = alloca [100 x i8], align 16
  %3 = alloca [100 x i8], align 16
  %4 = alloca i8, align 1
  %5 = alloca i32, align 4
  %6 = alloca i32, align 4
  %7 = alloca i32, align 4
  %8 = alloca i32, align 4
  store i32 0, i32* %1, align 4
  %9 = getelementptr inbounds [100 x i8], [100 x i8]* %2, i64 0, i64 0
  %10 = getelementptr inbounds [100 x i8], [100 x i8]* %3, i64 0, i64 0
  %11 = call i32 (i8*, ...) @__isoc99_scanf(i8* getelementptr inbounds ([5 x i8], [5 x i8]* @.str, i64 0, i64 0), i8* %9, i8* %10)
  %12 = getelementptr inbounds [100 x i8], [100 x i8]* %2, i64 0, i64 0
  %13 = call i64 @strlen(i8* %12) #3
  %14 = trunc i64 %13 to i32
  store i32 %14, i32* %5, align 4
  %15 = getelementptr inbounds [100 x i8], [100 x i8]* %3, i64 0, i64 0
  %16 = call i64 @strlen(i8* %15) #3
  %17 = trunc i64 %16 to i32
  store i32 %17, i32* %6, align 4
  store i32 0, i32* %7, align 4
  br label %18

18:                                               ; preds = %60, %0
  %19 = load i32, i32* %7, align 4
  %20 = load i32, i32* %5, align 4
  %21 = icmp slt i32 %19, %20
  br i1 %21, label %22, label %63

22:                                               ; preds = %18
  store i32 0, i32* %8, align 4
  br label %23

23:                                               ; preds = %56, %22
  %24 = load i32, i32* %8, align 4
  %25 = load i32, i32* %7, align 4
  %26 = icmp slt i32 %24, %25
  br i1 %26, label %27, label %59

27:                                               ; preds = %23
  %28 = load i32, i32* %7, align 4
  %29 = sext i32 %28 to i64
  %30 = getelementptr inbounds [100 x i8], [100 x i8]* %2, i64 0, i64 %29
  %31 = load i8, i8* %30, align 1
  %32 = sext i8 %31 to i32
  %33 = load i32, i32* %8, align 4
  %34 = sext i32 %33 to i64
  %35 = getelementptr inbounds [100 x i8], [100 x i8]* %2, i64 0, i64 %34
  %36 = load i8, i8* %35, align 1
  %37 = sext i8 %36 to i32
  %38 = icmp sgt i32 %32, %37
  br i1 %38, label %39, label %55

39:                                               ; preds = %27
  %40 = load i32, i32* %7, align 4
  %41 = sext i32 %40 to i64
  %42 = getelementptr inbounds [100 x i8], [100 x i8]* %2, i64 0, i64 %41
  %43 = load i8, i8* %42, align 1
  store i8 %43, i8* %4, align 1
  %44 = load i32, i32* %8, align 4
  %45 = sext i32 %44 to i64
  %46 = getelementptr inbounds [100 x i8], [100 x i8]* %2, i64 0, i64 %45
  %47 = load i8, i8* %46, align 1
  %48 = load i32, i32* %7, align 4
  %49 = sext i32 %48 to i64
  %50 = getelementptr inbounds [100 x i8], [100 x i8]* %2, i64 0, i64 %49
  store i8 %47, i8* %50, align 1
  %51 = load i8, i8* %4, align 1
  %52 = load i32, i32* %8, align 4
  %53 = sext i32 %52 to i64
  %54 = getelementptr inbounds [100 x i8], [100 x i8]* %2, i64 0, i64 %53
  store i8 %51, i8* %54, align 1
  br label %55

55:                                               ; preds = %39, %27
  br label %56

56:                                               ; preds = %55
  %57 = load i32, i32* %8, align 4
  %58 = add nsw i32 %57, 1
  store i32 %58, i32* %8, align 4
  br label %23

59:                                               ; preds = %23
  br label %60

60:                                               ; preds = %59
  %61 = load i32, i32* %7, align 4
  %62 = add nsw i32 %61, 1
  store i32 %62, i32* %7, align 4
  br label %18

63:                                               ; preds = %18
  store i32 0, i32* %7, align 4
  br label %64

64:                                               ; preds = %106, %63
  %65 = load i32, i32* %7, align 4
  %66 = load i32, i32* %6, align 4
  %67 = icmp slt i32 %65, %66
  br i1 %67, label %68, label %109

68:                                               ; preds = %64
  store i32 0, i32* %8, align 4
  br label %69

69:                                               ; preds = %102, %68
  %70 = load i32, i32* %8, align 4
  %71 = load i32, i32* %7, align 4
  %72 = icmp slt i32 %70, %71
  br i1 %72, label %73, label %105

73:                                               ; preds = %69
  %74 = load i32, i32* %7, align 4
  %75 = sext i32 %74 to i64
  %76 = getelementptr inbounds [100 x i8], [100 x i8]* %3, i64 0, i64 %75
  %77 = load i8, i8* %76, align 1
  %78 = sext i8 %77 to i32
  %79 = load i32, i32* %8, align 4
  %80 = sext i32 %79 to i64
  %81 = getelementptr inbounds [100 x i8], [100 x i8]* %3, i64 0, i64 %80
  %82 = load i8, i8* %81, align 1
  %83 = sext i8 %82 to i32
  %84 = icmp sgt i32 %78, %83
  br i1 %84, label %85, label %101

85:                                               ; preds = %73
  %86 = load i32, i32* %7, align 4
  %87 = sext i32 %86 to i64
  %88 = getelementptr inbounds [100 x i8], [100 x i8]* %3, i64 0, i64 %87
  %89 = load i8, i8* %88, align 1
  store i8 %89, i8* %4, align 1
  %90 = load i32, i32* %8, align 4
  %91 = sext i32 %90 to i64
  %92 = getelementptr inbounds [100 x i8], [100 x i8]* %3, i64 0, i64 %91
  %93 = load i8, i8* %92, align 1
  %94 = load i32, i32* %7, align 4
  %95 = sext i32 %94 to i64
  %96 = getelementptr inbounds [100 x i8], [100 x i8]* %3, i64 0, i64 %95
  store i8 %93, i8* %96, align 1
  %97 = load i8, i8* %4, align 1
  %98 = load i32, i32* %8, align 4
  %99 = sext i32 %98 to i64
  %100 = getelementptr inbounds [100 x i8], [100 x i8]* %3, i64 0, i64 %99
  store i8 %97, i8* %100, align 1
  br label %101

101:                                              ; preds = %85, %73
  br label %102

102:                                              ; preds = %101
  %103 = load i32, i32* %8, align 4
  %104 = add nsw i32 %103, 1
  store i32 %104, i32* %8, align 4
  br label %69

105:                                              ; preds = %69
  br label %106

106:                                              ; preds = %105
  %107 = load i32, i32* %7, align 4
  %108 = add nsw i32 %107, 1
  store i32 %108, i32* %7, align 4
  br label %64

109:                                              ; preds = %64
  %110 = getelementptr inbounds [100 x i8], [100 x i8]* %2, i64 0, i64 0
  %111 = getelementptr inbounds [100 x i8], [100 x i8]* %3, i64 0, i64 0
  %112 = call i32 @strcmp(i8* %110, i8* %111) #3
  %113 = icmp eq i32 %112, 0
  br i1 %113, label %114, label %116

114:                                              ; preds = %109
  %115 = call i32 (i8*, ...) @printf(i8* getelementptr inbounds ([4 x i8], [4 x i8]* @.str.1, i64 0, i64 0))
  br label %118

116:                                              ; preds = %109
  %117 = call i32 (i8*, ...) @printf(i8* getelementptr inbounds ([3 x i8], [3 x i8]* @.str.2, i64 0, i64 0))
  br label %118

118:                                              ; preds = %116, %114
  ret i32 0
}

declare dso_local i32 @__isoc99_scanf(i8*, ...) #1

; Function Attrs: nounwind readonly
declare dso_local i64 @strlen(i8*) #2

; Function Attrs: nounwind readonly
declare dso_local i32 @strcmp(i8*, i8*) #2

declare dso_local i32 @printf(i8*, ...) #1


!llvm.module.flags = !{!0}
!llvm.ident = !{!1}

!0 = !{i32 1, !"wchar_size", i32 4}
!1 = !{!"clang version 10.0.0-4ubuntu1 "}
